; Function Attrs: mustprogress uwtable
define hidden void @_ZN13hilbert_basis6add_leERK6vectorI8rationalLb1EjERKS1_(ptr noundef nonnull align 8 dereferenceable(127) %this, ptr nocapture noundef nonnull readonly align 8 dereferenceable(8) %v, ptr noundef nonnull align 8 dereferenceable(32) %b) local_unnamed_addr #3 align 2 personality ptr @__gxx_personality_v0 {
entry:
  %w = alloca %class.vector.16, align 8
  %ref.tmp = alloca %class.rational, align 8
  store ptr null, ptr %w, align 8
  %0 = load ptr, ptr %v, align 8
  %tobool.not.i = icmp eq ptr %0, null
  br i1 %tobool.not.i, label %_ZN6vectorI8rationalLb1EjEC2ERKS1_.exit, label %_ZNK6vectorI8rationalLb1EjE8capacityEv.exit.i.i

_ZNK6vectorI8rationalLb1EjE8capacityEv.exit.i.i:  ; preds = %entry
  %arrayidx.i11.i.i = getelementptr inbounds i8, ptr %0, i64 -8
  %1 = load <2 x i32>, ptr %arrayidx.i11.i.i, align 4
  %2 = extractelement <2 x i32> %1, i64 0
  %conv.i.i = zext i32 %2 to i64
  %mul.i.i = shl nuw nsw i64 %conv.i.i, 5
  %add.i.i = or disjoint i64 %mul.i.i, 8
  %call3.i.i = tail call noalias noundef ptr @_ZN6memory8allocateEm(i64 noundef %add.i.i)
  store <2 x i32> %1, ptr %call3.i.i, align 4
  %incdec.ptr4.i.i = getelementptr inbounds i8, ptr %call3.i.i, i64 8
  store ptr %incdec.ptr4.i.i, ptr %w, align 8
  %3 = load ptr, ptr %v, align 8
  %cmp.i.i.i.i = icmp eq ptr %3, null
  br i1 %cmp.i.i.i.i, label %_ZN6vectorI8rationalLb1EjE9copy_coreERKS1_.exit.i, label %if.end.i.i.i.i

if.end.i.i.i.i:                                   ; preds = %_ZNK6vectorI8rationalLb1EjE8capacityEv.exit.i.i
  %arrayidx.i.i.i.i = getelementptr inbounds i8, ptr %3, i64 -4
  %4 = load i32, ptr %arrayidx.i.i.i.i, align 4
  %5 = zext i32 %4 to i64
  br label %_ZN6vectorI8rationalLb1EjE9copy_coreERKS1_.exit.i

_ZN6vectorI8rationalLb1EjE9copy_coreERKS1_.exit.i: ; preds = %if.end.i.i.i.i, %_ZNK6vectorI8rationalLb1EjE8capacityEv.exit.i.i
  %retval.0.i.i.i.i = phi i64 [ %5, %if.end.i.i.i.i ], [ 0, %_ZNK6vectorI8rationalLb1EjE8capacityEv.exit.i.i ]
  %add.ptr.i.i.i = getelementptr inbounds %class.rational, ptr %3, i64 %retval.0.i.i.i.i
  %call.i.i.i.i = tail call noundef ptr @_ZSt16__do_uninit_copyIPK8rationalPS0_ET0_T_S5_S4_(ptr noundef %3, ptr noundef %add.ptr.i.i.i, ptr noundef nonnull %incdec.ptr4.i.i)
  br label %_ZN6vectorI8rationalLb1EjEC2ERKS1_.exit

_ZN6vectorI8rationalLb1EjEC2ERKS1_.exit:          ; preds = %entry, %_ZN6vectorI8rationalLb1EjE9copy_coreERKS1_.exit.i
  %6 = phi ptr [ null, %entry ], [ %incdec.ptr4.i.i, %_ZN6vectorI8rationalLb1EjE9copy_coreERKS1_.exit.i ]
  %cmp.i = icmp eq ptr %6, null
  %arrayidx.i = getelementptr inbounds i8, ptr %6, i64 -4
  br label %for.cond

for.cond:                                         ; preds = %for.inc, %_ZN6vectorI8rationalLb1EjEC2ERKS1_.exit
  %indvars.iv = phi i64 [ %indvars.iv.next, %for.inc ], [ 0, %_ZN6vectorI8rationalLb1EjEC2ERKS1_.exit ]
  br i1 %cmp.i, label %_ZNK6vectorI8rationalLb1EjE4sizeEv.exit, label %if.end.i

if.end.i:                                         ; preds = %for.cond
  %7 = load i32, ptr %arrayidx.i, align 4
  br label %_ZNK6vectorI8rationalLb1EjE4sizeEv.exit

_ZNK6vectorI8rationalLb1EjE4sizeEv.exit:          ; preds = %for.cond, %if.end.i
  %retval.0.i = phi i32 [ %7, %if.end.i ], [ 0, %for.cond ]
  %8 = zext i32 %retval.0.i to i64
  %cmp = icmp ult i64 %indvars.iv, %8
  br i1 %cmp, label %for.body, label %for.end

for.body:                                         ; preds = %_ZNK6vectorI8rationalLb1EjE4sizeEv.exit
  %arrayidx.i4 = getelementptr inbounds %class.rational, ptr %6, i64 %indvars.iv
  %9 = load ptr, ptr @_ZN8rational13g_mpq_managerE, align 8
  invoke void @_ZN11mpz_managerILb1EE3negER3mpz(ptr noundef nonnull align 8 dereferenceable(600) %9, ptr noundef nonnull align 8 dereferenceable(16) %arrayidx.i4)
          to label %for.inc unwind label %lpad.loopexit

for.inc:                                          ; preds = %for.body
  %indvars.iv.next = add nuw nsw i64 %indvars.iv, 1
  br label %for.cond, !llvm.loop !14

lpad.loopexit:                                    ; preds = %for.body
  %lpad.loopexit8 = landingpad { ptr, i32 }
          cleanup
  br label %ehcleanup

lpad.loopexit.split-lp:                           ; preds = %for.end
  %lpad.loopexit.split-lp9 = landingpad { ptr, i32 }
          cleanup
  br label %ehcleanup

for.end:                                          ; preds = %_ZNK6vectorI8rationalLb1EjE4sizeEv.exit
  invoke void @_ZngRK8rational(ptr nonnull sret(%class.rational) align 8 %ref.tmp, ptr noundef nonnull align 8 dereferenceable(32) %b)
          to label %invoke.cont5 unwind label %lpad.loopexit.split-lp

invoke.cont5:                                     ; preds = %for.end
  invoke void @_ZN13hilbert_basis6add_geERK6vectorI8rationalLb1EjERKS1_(ptr noundef nonnull align 8 dereferenceable(127) %this, ptr noundef nonnull align 8 dereferenceable(8) %w, ptr noundef nonnull align 8 dereferenceable(32) %ref.tmp)
          to label %invoke.cont7 unwind label %lpad6

invoke.cont7:                                     ; preds = %invoke.cont5
  %10 = load ptr, ptr @_ZN8rational13g_mpq_managerE, align 8
  invoke void @_ZN11mpz_managerILb1EE3delEPS0_R3mpz(ptr noundef %10, ptr noundef nonnull align 8 dereferenceable(16) %ref.tmp)
          to label %.noexc.i unwind label %terminate.lpad.i

.noexc.i:                                         ; preds = %invoke.cont7
  %m_den.i.i = getelementptr inbounds i8, ptr %ref.tmp, i64 16
  invoke void @_ZN11mpz_managerILb1EE3delEPS0_R3mpz(ptr noundef %10, ptr noundef nonnull align 8 dereferenceable(16) %m_den.i.i)
          to label %_ZN8rationalD2Ev.exit unwind label %terminate.lpad.i

terminate.lpad.i:                                 ; preds = %.noexc.i, %invoke.cont7
  %11 = landingpad { ptr, i32 }
          catch ptr null
  %12 = extractvalue { ptr, i32 } %11, 0
  call void @__clang_call_terminate(ptr %12) #23
  unreachable

_ZN8rationalD2Ev.exit:                            ; preds = %.noexc.i
  br i1 %cmp.i, label %_ZN6vectorI8rationalLb1EjED2Ev.exit, label %_ZNK6vectorI8rationalLb1EjE4sizeEv.exit.i.i.i

_ZNK6vectorI8rationalLb1EjE4sizeEv.exit.i.i.i:    ; preds = %_ZN8rationalD2Ev.exit
  %arrayidx.i.i.i.i5 = getelementptr inbounds i8, ptr %6, i64 -4
  %13 = load i32, ptr %arrayidx.i.i.i.i5, align 4
  %cmp.not5.i.i.i.i.i.i = icmp eq i32 %13, 0
  br i1 %cmp.not5.i.i.i.i.i.i, label %_ZN6vectorI8rationalLb1EjE16destroy_elementsEv.exit.i.i, label %for.body.i.i.i.i.i.i

for.body.i.i.i.i.i.i:                             ; preds = %_ZNK6vectorI8rationalLb1EjE4sizeEv.exit.i.i.i, %_ZSt8_DestroyI8rationalEvPT_.exit.i.i.i.i.i.i
  %__count.addr.07.i.i.i.i.i.i = phi i32 [ %dec.i.i.i.i.i.i, %_ZSt8_DestroyI8rationalEvPT_.exit.i.i.i.i.i.i ], [ %13, %_ZNK6vectorI8rationalLb1EjE4sizeEv.exit.i.i.i ]
  %__first.addr.06.i.i.i.i.i.i = phi ptr [ %incdec.ptr.i.i.i.i.i.i, %_ZSt8_DestroyI8rationalEvPT_.exit.i.i.i.i.i.i ], [ %6, %_ZNK6vectorI8rationalLb1EjE4sizeEv.exit.i.i.i ]
  %14 = load ptr, ptr @_ZN8rational13g_mpq_managerE, align 8
  invoke void @_ZN11mpz_managerILb1EE3delEPS0_R3mpz(ptr noundef %14, ptr noundef nonnull align 8 dereferenceable(16) %__first.addr.06.i.i.i.i.i.i)
          to label %.noexc.i.i.i.i.i.i.i.i unwind label %terminate.lpad.i.i.i.i.i.i.i.i

.noexc.i.i.i.i.i.i.i.i:                           ; preds = %for.body.i.i.i.i.i.i
  %m_den.i.i.i.i.i.i.i.i.i = getelementptr inbounds i8, ptr %__first.addr.06.i.i.i.i.i.i, i64 16
  invoke void @_ZN11mpz_managerILb1EE3delEPS0_R3mpz(ptr noundef %14, ptr noundef nonnull align 8 dereferenceable(16) %m_den.i.i.i.i.i.i.i.i.i)
          to label %_ZSt8_DestroyI8rationalEvPT_.exit.i.i.i.i.i.i unwind label %terminate.lpad.i.i.i.i.i.i.i.i

terminate.lpad.i.i.i.i.i.i.i.i:                   ; preds = %.noexc.i.i.i.i.i.i.i.i, %for.body.i.i.i.i.i.i
  %15 = landingpad { ptr, i32 }
          catch ptr null
  %16 = extractvalue { ptr, i32 } %15, 0
  call void @__clang_call_terminate(ptr %16) #23
  unreachable

_ZSt8_DestroyI8rationalEvPT_.exit.i.i.i.i.i.i:    ; preds = %.noexc.i.i.i.i.i.i.i.i
  %incdec.ptr.i.i.i.i.i.i = getelementptr inbounds i8, ptr %__first.addr.06.i.i.i.i.i.i, i64 32
  %dec.i.i.i.i.i.i = add i32 %__count.addr.07.i.i.i.i.i.i, -1
  %cmp.not.i.i.i.i.i.i = icmp eq i32 %dec.i.i.i.i.i.i, 0
  br i1 %cmp.not.i.i.i.i.i.i, label %_ZN6vectorI8rationalLb1EjE16destroy_elementsEv.exit.loopexit.i.i, label %for.body.i.i.i.i.i.i, !llvm.loop !15

_ZN6vectorI8rationalLb1EjE16destroy_elementsEv.exit.loopexit.i.i: ; preds = %_ZSt8_DestroyI8rationalEvPT_.exit.i.i.i.i.i.i
  %.pre.i.i = load ptr, ptr %w, align 8
  br label %_ZN6vectorI8rationalLb1EjE16destroy_elementsEv.exit.i.i

_ZN6vectorI8rationalLb1EjE16destroy_elementsEv.exit.i.i: ; preds = %_ZN6vectorI8rationalLb1EjE16destroy_elementsEv.exit.loopexit.i.i, %_ZNK6vectorI8rationalLb1EjE4sizeEv.exit.i.i.i
  %17 = phi ptr [ %.pre.i.i, %_ZN6vectorI8rationalLb1EjE16destroy_elementsEv.exit.loopexit.i.i ], [ %6, %_ZNK6vectorI8rationalLb1EjE4sizeEv.exit.i.i.i ]
  %add.ptr.i.i.i6 = getelementptr inbounds i8, ptr %17, i64 -8
  invoke void @_ZN6memory10deallocateEPv(ptr noundef nonnull %add.ptr.i.i.i6)
          to label %_ZN6vectorI8rationalLb1EjED2Ev.exit unwind label %terminate.lpad.i7

terminate.lpad.i7:                                ; preds = %_ZN6vectorI8rationalLb1EjE16destroy_elementsEv.exit.i.i
  %18 = landingpad { ptr, i32 }
          catch ptr null
  %19 = extractvalue { ptr, i32 } %18, 0
  call void @__clang_call_terminate(ptr %19) #23
  unreachable

_ZN6vectorI8rationalLb1EjED2Ev.exit:              ; preds = %_ZN8rationalD2Ev.exit, %_ZN6vectorI8rationalLb1EjE16destroy_elementsEv.exit.i.i
  ret void

lpad6:                                            ; preds = %invoke.cont5
  %20 = landingpad { ptr, i32 }
          cleanup
  call void @_ZN8rationalD2Ev(ptr noundef nonnull align 8 dereferenceable(32) %ref.tmp) #22
  br label %ehcleanup

ehcleanup:                                        ; preds = %lpad.loopexit, %lpad.loopexit.split-lp, %lpad6
  %.pn = phi { ptr, i32 } [ %20, %lpad6 ], [ %lpad.loopexit8, %lpad.loopexit ], [ %lpad.loopexit.split-lp9, %lpad.loopexit.split-lp ]
  call void @_ZN6vectorI8rationalLb1EjED2Ev(ptr noundef nonnull align 8 dereferenceable(8) %w) #22
  resume { ptr, i32 } %.pn
}